; Function Attrs: mustprogress uwtable
define hidden void @_ZNK2cv11xfeatures2d14pct_signatures22PCTSignaturesSQFD_Impl29computeQuadraticFormDistancesERKNS_3MatERKSt6vectorIS3_SaIS3_EERS6_IfSaIfEE(ptr noundef nonnull align 8 dereferenceable(20) %0, ptr noundef nonnull align 8 dereferenceable(96) %1, ptr noundef nonnull align 8 dereferenceable(24) %2, ptr noundef nonnull align 8 dereferenceable(24) %3) unnamed_addr #0 align 2 personality ptr @__gxx_personality_v0 {
  %5 = alloca %"class.cv::Range", align 4
  %6 = alloca %"class.cv::xfeatures2d::pct_signatures::Parallel_computeSQFDs", align 8
  call void @llvm.lifetime.start.p0(i64 8, ptr nonnull %5) #17
  %7 = getelementptr inbounds nuw i8, ptr %2, i64 8
  %8 = load ptr, ptr %7, align 8, !tbaa !47
  %9 = load ptr, ptr %2, align 8, !tbaa !50
  %10 = ptrtoint ptr %8 to i64
  %11 = ptrtoint ptr %9 to i64
  %12 = sub i64 %10, %11
  %13 = sdiv exact i64 %12, 96
  %14 = trunc i64 %13 to i32
  store i32 0, ptr %5, align 4, !tbaa !51
  %15 = getelementptr inbounds nuw i8, ptr %5, i64 4
  store i32 %14, ptr %15, align 4, !tbaa !53
  call void @llvm.lifetime.start.p0(i64 40, ptr nonnull %6) #17
  store ptr getelementptr inbounds nuw inrange(-16, 24) (i8, ptr @_ZTVN2cv11xfeatures2d14pct_signatures21Parallel_computeSQFDsE, i64 16), ptr %6, align 8, !tbaa !54
  %16 = getelementptr inbounds nuw i8, ptr %6, i64 8
  store ptr %0, ptr %16, align 8, !tbaa !56
  %17 = getelementptr inbounds nuw i8, ptr %6, i64 16
  store ptr %1, ptr %17, align 8, !tbaa !62
  %18 = getelementptr inbounds nuw i8, ptr %6, i64 24
  store ptr %2, ptr %18, align 8, !tbaa !63
  %19 = getelementptr inbounds nuw i8, ptr %6, i64 32
  store ptr %3, ptr %19, align 8, !tbaa !64
  %20 = getelementptr inbounds nuw i8, ptr %3, i64 8
  %21 = load ptr, ptr %20, align 8, !tbaa !65
  %22 = load ptr, ptr %3, align 8, !tbaa !68
  %23 = ptrtoint ptr %21 to i64
  %24 = ptrtoint ptr %22 to i64
  %25 = sub i64 %23, %24
  %26 = ashr exact i64 %25, 2
  %27 = icmp ugt i64 %13, %26
  br i1 %27, label %28, label %30

28:                                               ; preds = %4
  %29 = sub nuw nsw i64 %13, %26
  invoke void @_ZNSt6vectorIfSaIfEE17_M_default_appendEm(ptr noundef nonnull align 8 dereferenceable(24) %3, i64 noundef %29)
          to label %_ZN2cv11xfeatures2d14pct_signatures21Parallel_computeSQFDsC2EPKNS0_17PCTSignaturesSQFDEPKNS_3MatEPKSt6vectorIS6_SaIS6_EEPS9_IfSaIfEE.exit unwind label %35

30:                                               ; preds = %4
  %31 = icmp ult i64 %13, %26
  br i1 %31, label %32, label %_ZN2cv11xfeatures2d14pct_signatures21Parallel_computeSQFDsC2EPKNS0_17PCTSignaturesSQFDEPKNS_3MatEPKSt6vectorIS6_SaIS6_EEPS9_IfSaIfEE.exit

32:                                               ; preds = %30
  %33 = getelementptr inbounds nuw float, ptr %22, i64 %13
  %.not.i.i.i = icmp eq ptr %21, %33
  br i1 %.not.i.i.i, label %_ZN2cv11xfeatures2d14pct_signatures21Parallel_computeSQFDsC2EPKNS0_17PCTSignaturesSQFDEPKNS_3MatEPKSt6vectorIS6_SaIS6_EEPS9_IfSaIfEE.exit, label %34

34:                                               ; preds = %32
  store ptr %33, ptr %20, align 8, !tbaa !65
  br label %_ZN2cv11xfeatures2d14pct_signatures21Parallel_computeSQFDsC2EPKNS0_17PCTSignaturesSQFDEPKNS_3MatEPKSt6vectorIS6_SaIS6_EEPS9_IfSaIfEE.exit

common.resume:                                    ; preds = %38, %35
  %common.resume.op = phi { ptr, i32 } [ %36, %35 ], [ %39, %38 ]
  resume { ptr, i32 } %common.resume.op

35:                                               ; preds = %28
  %36 = landingpad { ptr, i32 }
          cleanup
  call void @_ZN2cv16ParallelLoopBodyD2Ev(ptr noundef nonnull align 8 dereferenceable(40) %6) #17
  br label %common.resume

_ZN2cv11xfeatures2d14pct_signatures21Parallel_computeSQFDsC2EPKNS0_17PCTSignaturesSQFDEPKNS_3MatEPKSt6vectorIS6_SaIS6_EEPS9_IfSaIfEE.exit: ; preds = %28, %30, %32, %34
  invoke void @_ZN2cv13parallel_for_ERKNS_5RangeERKNS_16ParallelLoopBodyEd(ptr noundef nonnull align 4 dereferenceable(8) %5, ptr noundef nonnull align 8 dereferenceable(8) %6, double noundef -1.000000e+00)
          to label %37 unwind label %38

37:                                               ; preds = %_ZN2cv11xfeatures2d14pct_signatures21Parallel_computeSQFDsC2EPKNS0_17PCTSignaturesSQFDEPKNS_3MatEPKSt6vectorIS6_SaIS6_EEPS9_IfSaIfEE.exit
  call void @_ZN2cv16ParallelLoopBodyD2Ev(ptr noundef nonnull align 8 dereferenceable(40) %6) #17
  call void @llvm.lifetime.end.p0(i64 40, ptr nonnull %6) #17
  call void @llvm.lifetime.end.p0(i64 8, ptr nonnull %5) #17
  ret void

38:                                               ; preds = %_ZN2cv11xfeatures2d14pct_signatures21Parallel_computeSQFDsC2EPKNS0_17PCTSignaturesSQFDEPKNS_3MatEPKSt6vectorIS6_SaIS6_EEPS9_IfSaIfEE.exit
  %39 = landingpad { ptr, i32 }
          cleanup
  call void @_ZN2cv16ParallelLoopBodyD2Ev(ptr noundef nonnull align 8 dereferenceable(40) %6) #17
  call void @llvm.lifetime.end.p0(i64 40, ptr nonnull %6) #17
  call void @llvm.lifetime.end.p0(i64 8, ptr nonnull %5) #17
  br label %common.resume
}